target datalayout = "e-m:e-p270:32:32-p271:32:32-p272:64:64-i64:64-i128:128-f80:128-n8:16:32:64-S128"
target triple = "x86_64-pc-linux-gnu"

%struct.option = type { i32, i32, ptr, ptr, ptr, ptr, i32, ptr, i64, ptr, i64, ptr }
%struct.object_id = type { [32 x i8], i32 }
%struct.worktree = type { ptr, ptr, ptr, ptr, ptr, ptr, %struct.object_id, i32, i32, i32, i32, i32 }

@.str.143 = private unnamed_addr constant [27 x i8] c"'%s' is not a working tree\00", align 1
@.str.144 = private unnamed_addr constant [51 x i8] c"The main working tree cannot be locked or unlocked\00", align 1
@.str.147 = private unnamed_addr constant [20 x i8] c"worktrees/%s/locked\00", align 1
@git_worktree_unlock_usage = internal constant [2 x ptr] [ptr @.str.150, ptr null], align 16
@.str.149 = private unnamed_addr constant [19 x i8] c"'%s' is not locked\00", align 1

; Function Attrs: nounwind uwtable
define internal i32 @unlock_worktree(i32 noundef %0, ptr noundef %1, ptr noundef %2, ptr noundef %3) #0 {
  %5 = alloca i32, align 4
  %6 = alloca ptr, align 8
  %7 = alloca ptr, align 8
  %8 = alloca ptr, align 8
  %9 = alloca [1 x %struct.option], align 16
  %10 = alloca ptr, align 8
  %11 = alloca ptr, align 8
  %12 = alloca i32, align 4
  store i32 %0, ptr %5, align 4, !tbaa !4
  store ptr %1, ptr %6, align 8, !tbaa !8
  store ptr %2, ptr %7, align 8, !tbaa !11
  store ptr %3, ptr %8, align 8, !tbaa !13
  call void @llvm.lifetime.start.p0(i64 88, ptr %9) #11
  call void @llvm.memset.p0.i64(ptr align 16 %9, i8 0, i64 88, i1 false)
  call void @llvm.lifetime.start.p0(i64 8, ptr %10) #11
  call void @llvm.lifetime.start.p0(i64 8, ptr %11) #11
  call void @llvm.lifetime.start.p0(i64 4, ptr %12) #11
  %13 = load i32, ptr %5, align 4, !tbaa !4
  %14 = load ptr, ptr %6, align 8, !tbaa !8
  %15 = load ptr, ptr %7, align 8, !tbaa !11
  %16 = getelementptr inbounds [1 x %struct.option], ptr %9, i64 0, i64 0
  %17 = call i32 @parse_options(i32 noundef %13, ptr noundef %14, ptr noundef %15, ptr noundef %16, ptr noundef @git_worktree_unlock_usage, i32 noundef 0)
  store i32 %17, ptr %5, align 4, !tbaa !4
  %18 = load i32, ptr %5, align 4, !tbaa !4
  %19 = icmp ne i32 %18, 1
  br i1 %19, label %20, label %22

20:                                               ; preds = %4
  %21 = getelementptr inbounds [1 x %struct.option], ptr %9, i64 0, i64 0
  call void @usage_with_options(ptr noundef @git_worktree_unlock_usage, ptr noundef %21) #12
  unreachable

22:                                               ; preds = %4
  %23 = call ptr @get_worktrees()
  store ptr %23, ptr %10, align 8, !tbaa !61
  %24 = load ptr, ptr %10, align 8, !tbaa !61
  %25 = load ptr, ptr %7, align 8, !tbaa !11
  %26 = load ptr, ptr %6, align 8, !tbaa !8
  %27 = getelementptr inbounds ptr, ptr %26, i64 0
  %28 = load ptr, ptr %27, align 8, !tbaa !11
  %29 = call ptr @find_worktree(ptr noundef %24, ptr noundef %25, ptr noundef %28)
  store ptr %29, ptr %11, align 8, !tbaa !63
  %30 = load ptr, ptr %11, align 8, !tbaa !63
  %31 = icmp ne ptr %30, null
  br i1 %31, label %37, label %32

32:                                               ; preds = %22
  %33 = call ptr @_(ptr noundef @.str.143)
  %34 = load ptr, ptr %6, align 8, !tbaa !8
  %35 = getelementptr inbounds ptr, ptr %34, i64 0
  %36 = load ptr, ptr %35, align 8, !tbaa !11
  call void (ptr, ...) @die(ptr noundef %33, ptr noundef %36) #12
  unreachable

37:                                               ; preds = %22
  %38 = load ptr, ptr %11, align 8, !tbaa !63
  %39 = call i32 @is_main_worktree(ptr noundef %38)
  %40 = icmp ne i32 %39, 0
  br i1 %40, label %41, label %43

41:                                               ; preds = %37
  %42 = call ptr @_(ptr noundef @.str.144)
  call void (ptr, ...) @die(ptr noundef %42) #12
  unreachable

43:                                               ; preds = %37
  %44 = load ptr, ptr %11, align 8, !tbaa !63
  %45 = call ptr @worktree_lock_reason(ptr noundef %44)
  %46 = icmp ne ptr %45, null
  br i1 %46, label %52, label %47

47:                                               ; preds = %43
  %48 = call ptr @_(ptr noundef @.str.149)
  %49 = load ptr, ptr %6, align 8, !tbaa !8
  %50 = getelementptr inbounds ptr, ptr %49, i64 0
  %51 = load ptr, ptr %50, align 8, !tbaa !11
  call void (ptr, ...) @die(ptr noundef %48, ptr noundef %51) #12
  unreachable

52:                                               ; preds = %43
  %53 = load ptr, ptr %11, align 8, !tbaa !63
  %54 = getelementptr inbounds nuw %struct.worktree, ptr %53, i32 0, i32 2
  %55 = load ptr, ptr %54, align 8, !tbaa !68
  %56 = call ptr (ptr, ...) @git_common_path(ptr noundef @.str.147, ptr noundef %55)
  %57 = call i32 @unlink_or_warn(ptr noundef %56)
  store i32 %57, ptr %12, align 4, !tbaa !4
  %58 = load ptr, ptr %10, align 8, !tbaa !61
  call void @free_worktrees(ptr noundef %58)
  %59 = load i32, ptr %12, align 4, !tbaa !4
  call void @llvm.lifetime.end.p0(i64 4, ptr %12) #11
  call void @llvm.lifetime.end.p0(i64 8, ptr %11) #11
  call void @llvm.lifetime.end.p0(i64 8, ptr %10) #11
  call void @llvm.lifetime.end.p0(i64 88, ptr %9) #11
  ret i32 %59
}