; Function Attrs: nounwind uwtable
define internal i32 @unlock_worktree(i32 noundef %0, ptr noundef %1, ptr noundef %2, ptr readnone captures(none) %3) #0 {
  %5 = alloca [1 x %struct.option], align 16
  call void @llvm.lifetime.start.p0(i64 88, ptr nonnull %5) #18
  call void @llvm.memset.p0.i64(ptr noundef nonnull align 16 dereferenceable(88) %5, i8 0, i64 88, i1 false)
  %6 = call i32 @parse_options(i32 noundef %0, ptr noundef %1, ptr noundef %2, ptr noundef nonnull %5, ptr noundef nonnull @git_worktree_unlock_usage, i32 noundef 0) #18
  %.not = icmp eq i32 %6, 1
  br i1 %.not, label %8, label %7

7:                                                ; preds = %4
  call void @usage_with_options(ptr noundef nonnull @git_worktree_unlock_usage, ptr noundef nonnull %5) #19
  unreachable

8:                                                ; preds = %4
  %9 = call ptr @get_worktrees() #18
  %10 = load ptr, ptr %1, align 8, !tbaa !37
  %11 = call ptr @find_worktree(ptr noundef %9, ptr noundef %2, ptr noundef %10) #18
  %.not14 = icmp eq ptr %11, null
  br i1 %.not14, label %12, label %15

12:                                               ; preds = %8
  %13 = call fastcc ptr @_(ptr noundef nonnull @.str.143)
  %14 = load ptr, ptr %1, align 8, !tbaa !37
  call void (ptr, ...) @die(ptr noundef %13, ptr noundef %14) #19
  unreachable

15:                                               ; preds = %8
  %16 = call i32 @is_main_worktree(ptr noundef nonnull %11) #18
  %.not15 = icmp eq i32 %16, 0
  br i1 %.not15, label %19, label %17

17:                                               ; preds = %15
  %18 = call fastcc ptr @_(ptr noundef nonnull @.str.144)
  call void (ptr, ...) @die(ptr noundef %18) #19
  unreachable

19:                                               ; preds = %15
  %20 = call ptr @worktree_lock_reason(ptr noundef nonnull %11) #18
  %.not16 = icmp eq ptr %20, null
  br i1 %.not16, label %21, label %24

21:                                               ; preds = %19
  %22 = call fastcc ptr @_(ptr noundef nonnull @.str.149)
  %23 = load ptr, ptr %1, align 8, !tbaa !37
  call void (ptr, ...) @die(ptr noundef %22, ptr noundef %23) #19
  unreachable

24:                                               ; preds = %19
  %25 = getelementptr inbounds nuw i8, ptr %11, i64 16
  %26 = load ptr, ptr %25, align 8, !tbaa !91
  %27 = call ptr (ptr, ...) @git_common_path(ptr noundef nonnull @.str.147, ptr noundef %26)
  %28 = call i32 @unlink_or_warn(ptr noundef %27) #18
  call void @free_worktrees(ptr noundef %9) #18
  call void @llvm.lifetime.end.p0(i64 88, ptr nonnull %5) #18
  ret i32 %28
}